ARM GAS  C:\Users\one\AppData\Local\Temp\ccgbir7x.s 			page 1


   1              		.cpu cortex-m4
   2              		.eabi_attribute 27, 1
   3              		.eabi_attribute 28, 1
   4              		.eabi_attribute 20, 1
   5              		.eabi_attribute 21, 1
   6              		.eabi_attribute 23, 3
   7              		.eabi_attribute 24, 1
   8              		.eabi_attribute 25, 1
   9              		.eabi_attribute 26, 1
  10              		.eabi_attribute 30, 1
  11              		.eabi_attribute 34, 1
  12              		.eabi_attribute 18, 4
  13              		.file	"pid.cpp"
  14              		.text
  15              	.Ltext0:
  16              		.cfi_sections	.debug_frame
  17              		.section	.text._ZN3PID5setKpEf,"ax",%progbits
  18              		.align	1
  19              		.global	_ZN3PID5setKpEf
  20              		.arch armv7e-m
  21              		.syntax unified
  22              		.thumb
  23              		.thumb_func
  24              		.fpu fpv4-sp-d16
  26              	_ZN3PID5setKpEf:
  27              	.LVL0:
  28              	.LFB237:
  29              		.file 1 "Core/Src/pid.cpp"
   1:Core/Src/pid.cpp **** #include "pid.h"
   2:Core/Src/pid.cpp **** #include "math.h"
   3:Core/Src/pid.cpp **** #define SampleTime 10
   4:Core/Src/pid.cpp **** float max, min;
   5:Core/Src/pid.cpp **** float lastError = 0;
   6:Core/Src/pid.cpp **** float iError = 0;
   7:Core/Src/pid.cpp **** 
   8:Core/Src/pid.cpp **** void PID::setKp(float kp) { Kp = kp; }
  30              		.loc 1 8 27 view -0
  31              		.cfi_startproc
  32              		@ args = 0, pretend = 0, frame = 0
  33              		@ frame_needed = 0, uses_anonymous_args = 0
  34              		@ link register save eliminated.
  35              		.loc 1 8 29 view .LVU1
  36              		.loc 1 8 32 is_stmt 0 view .LVU2
  37 0000 80ED000A 		vstr.32	s0, [r0]
  38              		.loc 1 8 38 view .LVU3
  39 0004 7047     		bx	lr
  40              		.cfi_endproc
  41              	.LFE237:
  43              		.section	.text._ZN3PID5setKiEf,"ax",%progbits
  44              		.align	1
  45              		.global	_ZN3PID5setKiEf
  46              		.syntax unified
  47              		.thumb
  48              		.thumb_func
  49              		.fpu fpv4-sp-d16
  51              	_ZN3PID5setKiEf:
  52              	.LVL1:
ARM GAS  C:\Users\one\AppData\Local\Temp\ccgbir7x.s 			page 2


  53              	.LFB238:
   9:Core/Src/pid.cpp **** void PID::setKi(float ki) { Ki = ki; }
  54              		.loc 1 9 27 is_stmt 1 view -0
  55              		.cfi_startproc
  56              		@ args = 0, pretend = 0, frame = 0
  57              		@ frame_needed = 0, uses_anonymous_args = 0
  58              		@ link register save eliminated.
  59              		.loc 1 9 29 view .LVU5
  60              		.loc 1 9 32 is_stmt 0 view .LVU6
  61 0000 80ED010A 		vstr.32	s0, [r0, #4]
  62              		.loc 1 9 38 view .LVU7
  63 0004 7047     		bx	lr
  64              		.cfi_endproc
  65              	.LFE238:
  67              		.section	.text._ZN3PID5setKdEf,"ax",%progbits
  68              		.align	1
  69              		.global	_ZN3PID5setKdEf
  70              		.syntax unified
  71              		.thumb
  72              		.thumb_func
  73              		.fpu fpv4-sp-d16
  75              	_ZN3PID5setKdEf:
  76              	.LVL2:
  77              	.LFB239:
  10:Core/Src/pid.cpp **** void PID::setKd(float kd) { Kd = kd; }
  78              		.loc 1 10 27 is_stmt 1 view -0
  79              		.cfi_startproc
  80              		@ args = 0, pretend = 0, frame = 0
  81              		@ frame_needed = 0, uses_anonymous_args = 0
  82              		@ link register save eliminated.
  83              		.loc 1 10 29 view .LVU9
  84              		.loc 1 10 32 is_stmt 0 view .LVU10
  85 0000 80ED020A 		vstr.32	s0, [r0, #8]
  86              		.loc 1 10 38 view .LVU11
  87 0004 7047     		bx	lr
  88              		.cfi_endproc
  89              	.LFE239:
  91              		.section	.text._ZN3PID6setPIDEfff,"ax",%progbits
  92              		.align	1
  93              		.global	_ZN3PID6setPIDEfff
  94              		.syntax unified
  95              		.thumb
  96              		.thumb_func
  97              		.fpu fpv4-sp-d16
  99              	_ZN3PID6setPIDEfff:
 100              	.LVL3:
 101              	.LFB240:
  11:Core/Src/pid.cpp **** void PID::setPID(float kp, float ki, float kd)
  12:Core/Src/pid.cpp **** {
 102              		.loc 1 12 1 is_stmt 1 view -0
 103              		.cfi_startproc
 104              		@ args = 0, pretend = 0, frame = 0
 105              		@ frame_needed = 0, uses_anonymous_args = 0
 106              		.loc 1 12 1 is_stmt 0 view .LVU13
 107 0000 10B5     		push	{r4, lr}
 108              	.LCFI0:
 109              		.cfi_def_cfa_offset 8
ARM GAS  C:\Users\one\AppData\Local\Temp\ccgbir7x.s 			page 3


 110              		.cfi_offset 4, -8
 111              		.cfi_offset 14, -4
 112 0002 2DED028B 		vpush.64	{d8}
 113              	.LCFI1:
 114              		.cfi_def_cfa_offset 16
 115              		.cfi_offset 80, -16
 116              		.cfi_offset 81, -12
 117 0006 0446     		mov	r4, r0
 118 0008 F0EE608A 		vmov.f32	s17, s1
 119 000c B0EE418A 		vmov.f32	s16, s2
  13:Core/Src/pid.cpp ****     setKp(kp);
 120              		.loc 1 13 5 is_stmt 1 view .LVU14
 121              		.loc 1 13 10 is_stmt 0 view .LVU15
 122 0010 FFF7FEFF 		bl	_ZN3PID5setKpEf
 123              	.LVL4:
  14:Core/Src/pid.cpp ****     setKi(ki);
 124              		.loc 1 14 5 is_stmt 1 view .LVU16
 125              		.loc 1 14 10 is_stmt 0 view .LVU17
 126 0014 B0EE680A 		vmov.f32	s0, s17
 127 0018 2046     		mov	r0, r4
 128 001a FFF7FEFF 		bl	_ZN3PID5setKiEf
 129              	.LVL5:
  15:Core/Src/pid.cpp ****     setKd(kd);
 130              		.loc 1 15 5 is_stmt 1 view .LVU18
 131              		.loc 1 15 10 is_stmt 0 view .LVU19
 132 001e B0EE480A 		vmov.f32	s0, s16
 133 0022 2046     		mov	r0, r4
 134 0024 FFF7FEFF 		bl	_ZN3PID5setKdEf
 135              	.LVL6:
  16:Core/Src/pid.cpp **** }
 136              		.loc 1 16 1 view .LVU20
 137 0028 BDEC028B 		vldm	sp!, {d8}
 138              	.LCFI2:
 139              		.cfi_restore 80
 140              		.cfi_restore 81
 141              		.cfi_def_cfa_offset 8
 142              	.LVL7:
 143              		.loc 1 16 1 view .LVU21
 144 002c 10BD     		pop	{r4, pc}
 145              		.loc 1 16 1 view .LVU22
 146              		.cfi_endproc
 147              	.LFE240:
 149              		.section	.text._ZN3PID9setlimitsEff,"ax",%progbits
 150              		.align	1
 151              		.global	_ZN3PID9setlimitsEff
 152              		.syntax unified
 153              		.thumb
 154              		.thumb_func
 155              		.fpu fpv4-sp-d16
 157              	_ZN3PID9setlimitsEff:
 158              	.LVL8:
 159              	.LFB241:
  17:Core/Src/pid.cpp **** void PID::setlimits(float upp_out, float low_out)
  18:Core/Src/pid.cpp **** {
 160              		.loc 1 18 1 is_stmt 1 view -0
 161              		.cfi_startproc
 162              		@ args = 0, pretend = 0, frame = 0
ARM GAS  C:\Users\one\AppData\Local\Temp\ccgbir7x.s 			page 4


 163              		@ frame_needed = 0, uses_anonymous_args = 0
 164              		@ link register save eliminated.
  19:Core/Src/pid.cpp ****     max = upp_out;
 165              		.loc 1 19 5 view .LVU24
 166              		.loc 1 19 9 is_stmt 0 view .LVU25
 167 0000 80ED030A 		vstr.32	s0, [r0, #12]
  20:Core/Src/pid.cpp ****     min = low_out;
 168              		.loc 1 20 5 is_stmt 1 view .LVU26
 169              		.loc 1 20 9 is_stmt 0 view .LVU27
 170 0004 C0ED040A 		vstr.32	s1, [r0, #16]
  21:Core/Src/pid.cpp **** }
 171              		.loc 1 21 1 view .LVU28
 172 0008 7047     		bx	lr
 173              		.cfi_endproc
 174              	.LFE241:
 176              		.global	__aeabi_f2d
 177              		.global	__aeabi_ddiv
 178              		.global	__aeabi_dadd
 179              		.global	__aeabi_d2f
 180              		.section	.text._ZN3PID10computePIDEff,"ax",%progbits
 181              		.align	1
 182              		.global	_ZN3PID10computePIDEff
 183              		.syntax unified
 184              		.thumb
 185              		.thumb_func
 186              		.fpu fpv4-sp-d16
 188              	_ZN3PID10computePIDEff:
 189              	.LVL9:
 190              	.LFB242:
  22:Core/Src/pid.cpp **** 
  23:Core/Src/pid.cpp **** float PID::computePID(float setpoint, float obtain)
  24:Core/Src/pid.cpp **** {
 191              		.loc 1 24 1 is_stmt 1 view -0
 192              		.cfi_startproc
 193              		@ args = 0, pretend = 0, frame = 0
 194              		@ frame_needed = 0, uses_anonymous_args = 0
 195              		.loc 1 24 1 is_stmt 0 view .LVU30
 196 0000 F8B5     		push	{r3, r4, r5, r6, r7, lr}
 197              	.LCFI3:
 198              		.cfi_def_cfa_offset 24
 199              		.cfi_offset 3, -24
 200              		.cfi_offset 4, -20
 201              		.cfi_offset 5, -16
 202              		.cfi_offset 6, -12
 203              		.cfi_offset 7, -8
 204              		.cfi_offset 14, -4
 205 0002 2DED028B 		vpush.64	{d8}
 206              	.LCFI4:
 207              		.cfi_def_cfa_offset 32
 208              		.cfi_offset 80, -32
 209              		.cfi_offset 81, -28
 210 0006 0446     		mov	r4, r0
  25:Core/Src/pid.cpp ****     float error = setpoint - obtain;
 211              		.loc 1 25 5 is_stmt 1 view .LVU31
 212              		.loc 1 25 11 is_stmt 0 view .LVU32
 213 0008 30EE608A 		vsub.f32	s16, s0, s1
 214              	.LVL10:
ARM GAS  C:\Users\one\AppData\Local\Temp\ccgbir7x.s 			page 5


  26:Core/Src/pid.cpp ****     iError = iError + (error * float(SampleTime)) / 1000.0;
 215              		.loc 1 26 5 is_stmt 1 view .LVU33
 216              		.loc 1 26 14 is_stmt 0 view .LVU34
 217 000c 1E4D     		ldr	r5, .L10
 218 000e 2868     		ldr	r0, [r5]	@ float
 219              	.LVL11:
 220              		.loc 1 26 14 view .LVU35
 221 0010 FFF7FEFF 		bl	__aeabi_f2d
 222              	.LVL12:
 223              		.loc 1 26 14 view .LVU36
 224 0014 0646     		mov	r6, r0
 225 0016 0F46     		mov	r7, r1
 226              		.loc 1 26 30 view .LVU37
 227 0018 F2EE047A 		vmov.f32	s15, #1.0e+1
 228 001c 68EE277A 		vmul.f32	s15, s16, s15
 229 0020 17EE900A 		vmov	r0, s15
 230 0024 FFF7FEFF 		bl	__aeabi_f2d
 231              	.LVL13:
 232              		.loc 1 26 51 view .LVU38
 233 0028 0022     		movs	r2, #0
 234 002a 184B     		ldr	r3, .L10+4
 235 002c FFF7FEFF 		bl	__aeabi_ddiv
 236              	.LVL14:
 237 0030 0246     		mov	r2, r0
 238 0032 0B46     		mov	r3, r1
 239              		.loc 1 26 21 view .LVU39
 240 0034 3046     		mov	r0, r6
 241 0036 3946     		mov	r1, r7
 242 0038 FFF7FEFF 		bl	__aeabi_dadd
 243              	.LVL15:
 244 003c FFF7FEFF 		bl	__aeabi_d2f
 245              	.LVL16:
 246 0040 07EE900A 		vmov	s15, r0
 247              		.loc 1 26 12 view .LVU40
 248 0044 2860     		str	r0, [r5]	@ float
  27:Core/Src/pid.cpp ****     float output = Kp * error + Ki * iError;
 249              		.loc 1 27 5 is_stmt 1 view .LVU41
 250              		.loc 1 27 20 is_stmt 0 view .LVU42
 251 0046 94ED007A 		vldr.32	s14, [r4]
 252              		.loc 1 27 23 view .LVU43
 253 004a 27EE087A 		vmul.f32	s14, s14, s16
 254              		.loc 1 27 33 view .LVU44
 255 004e D4ED016A 		vldr.32	s13, [r4, #4]
 256              		.loc 1 27 36 view .LVU45
 257 0052 67EEA67A 		vmul.f32	s15, s15, s13
 258              		.loc 1 27 11 view .LVU46
 259 0056 77EE277A 		vadd.f32	s15, s14, s15
 260              	.LVL17:
  28:Core/Src/pid.cpp ****     lastError = error;
 261              		.loc 1 28 5 is_stmt 1 view .LVU47
 262              		.loc 1 28 15 is_stmt 0 view .LVU48
 263 005a 0D4B     		ldr	r3, .L10+8
 264 005c 83ED008A 		vstr.32	s16, [r3]
  29:Core/Src/pid.cpp ****     if (output > max)
 265              		.loc 1 29 5 is_stmt 1 view .LVU49
 266              		.loc 1 29 18 is_stmt 0 view .LVU50
 267 0060 94ED030A 		vldr.32	s0, [r4, #12]
ARM GAS  C:\Users\one\AppData\Local\Temp\ccgbir7x.s 			page 6


 268              		.loc 1 29 5 view .LVU51
 269 0064 B4EEE70A 		vcmpe.f32	s0, s15
 270 0068 F1EE10FA 		vmrs	APSR_nzcv, FPSCR
 271 006c 08D4     		bmi	.L7
  30:Core/Src/pid.cpp ****     {
  31:Core/Src/pid.cpp ****         output = max;
  32:Core/Src/pid.cpp ****     }
  33:Core/Src/pid.cpp ****     else if (output < min)
 272              		.loc 1 33 10 is_stmt 1 view .LVU52
 273              		.loc 1 33 23 is_stmt 0 view .LVU53
 274 006e 94ED040A 		vldr.32	s0, [r4, #16]
 275              		.loc 1 33 10 view .LVU54
 276 0072 B4EEE70A 		vcmpe.f32	s0, s15
 277 0076 F1EE10FA 		vmrs	APSR_nzcv, FPSCR
 278 007a 01DC     		bgt	.L7
  27:Core/Src/pid.cpp ****     lastError = error;
 279              		.loc 1 27 11 view .LVU55
 280 007c B0EE670A 		vmov.f32	s0, s15
  34:Core/Src/pid.cpp ****     {
  35:Core/Src/pid.cpp ****         output = min;
  36:Core/Src/pid.cpp ****     }
  37:Core/Src/pid.cpp ****     // printf("SetPoint = %f, Output = %f\n", setpoint, output);
  38:Core/Src/pid.cpp ****     return output;
 281              		.loc 1 38 5 is_stmt 1 view .LVU56
 282              	.LVL18:
 283              	.L7:
  39:Core/Src/pid.cpp **** }
 284              		.loc 1 39 1 is_stmt 0 view .LVU57
 285 0080 BDEC028B 		vldm	sp!, {d8}
 286              	.LCFI5:
 287              		.cfi_restore 80
 288              		.cfi_restore 81
 289              		.cfi_def_cfa_offset 24
 290              	.LVL19:
 291              		.loc 1 39 1 view .LVU58
 292 0084 F8BD     		pop	{r3, r4, r5, r6, r7, pc}
 293              	.LVL20:
 294              	.L11:
 295              		.loc 1 39 1 view .LVU59
 296 0086 00BF     		.align	2
 297              	.L10:
 298 0088 00000000 		.word	.LANCHOR0
 299 008c 00408F40 		.word	1083129856
 300 0090 00000000 		.word	.LANCHOR1
 301              		.cfi_endproc
 302              	.LFE242:
 304              		.global	iError
 305              		.global	lastError
 306              		.global	min
 307              		.global	max
 308              		.section	.bss.iError,"aw",%nobits
 309              		.align	2
 310              		.set	.LANCHOR0,. + 0
 313              	iError:
 314 0000 00000000 		.space	4
 315              		.section	.bss.lastError,"aw",%nobits
 316              		.align	2
ARM GAS  C:\Users\one\AppData\Local\Temp\ccgbir7x.s 			page 7


 317              		.set	.LANCHOR1,. + 0
 320              	lastError:
 321 0000 00000000 		.space	4
 322              		.section	.bss.max,"aw",%nobits
 323              		.align	2
 326              	max:
 327 0000 00000000 		.space	4
 328              		.section	.bss.min,"aw",%nobits
 329              		.align	2
 332              	min:
 333 0000 00000000 		.space	4
 334              		.text
 335              	.Letext0:
 336              		.file 2 "c:\\vsarm\\armcc\\lib\\gcc\\arm-none-eabi\\9.3.1\\include\\stddef.h"
 337              		.file 3 "c:\\vsarm\\armcc\\arm-none-eabi\\include\\sys\\_types.h"
 338              		.file 4 "c:\\vsarm\\armcc\\arm-none-eabi\\include\\sys\\reent.h"
 339              		.file 5 "c:\\vsarm\\armcc\\arm-none-eabi\\include\\sys\\lock.h"
 340              		.file 6 "Core/Inc/pid.h"
 341              		.file 7 "c:\\vsarm\\armcc\\arm-none-eabi\\include\\c++\\9.3.1\\bits\\cpp_type_traits.h"
 342              		.file 8 "c:\\vsarm\\armcc\\arm-none-eabi\\include\\c++\\9.3.1\\cmath"
 343              		.file 9 "c:\\vsarm\\armcc\\arm-none-eabi\\include\\c++\\9.3.1\\bits\\std_abs.h"
 344              		.file 10 "c:\\vsarm\\armcc\\arm-none-eabi\\include\\c++\\9.3.1\\arm-none-eabi\\thumb\\v7e-m+fp\\ha
 345              		.file 11 "c:\\vsarm\\armcc\\arm-none-eabi\\include\\math.h"
 346              		.file 12 "c:\\vsarm\\armcc\\arm-none-eabi\\include\\stdlib.h"
 347              		.file 13 "c:\\vsarm\\armcc\\arm-none-eabi\\include\\c++\\9.3.1\\math.h"
 348              		.file 14 "<built-in>"
ARM GAS  C:\Users\one\AppData\Local\Temp\ccgbir7x.s 			page 8

