ARM GAS  C:\Users\one\AppData\Local\Temp\ccpgBytO.s 			page 1


   1              		.cpu cortex-m4
   2              		.eabi_attribute 27, 1
   3              		.eabi_attribute 28, 1
   4              		.eabi_attribute 20, 1
   5              		.eabi_attribute 21, 1
   6              		.eabi_attribute 23, 3
   7              		.eabi_attribute 24, 1
   8              		.eabi_attribute 25, 1
   9              		.eabi_attribute 26, 1
  10              		.eabi_attribute 30, 1
  11              		.eabi_attribute 34, 1
  12              		.eabi_attribute 18, 4
  13              		.file	"robo_init.cpp"
  14              		.text
  15              	.Ltext0:
  16              		.cfi_sections	.debug_frame
  17              		.section	.text.__tcf_0,"ax",%progbits
  18              		.align	1
  19              		.arch armv7e-m
  20              		.syntax unified
  21              		.thumb
  22              		.thumb_func
  23              		.fpu fpv4-sp-d16
  25              	__tcf_0:
  26              	.LFB408:
  27              		.file 1 "Core/Src/robo_init.cpp"
   1:Core/Src/robo_init.cpp **** #include "robo_init.h"
   2:Core/Src/robo_init.cpp **** #include "motor.h"
   3:Core/Src/robo_init.cpp **** #include "encoder.h"
   4:Core/Src/robo_init.cpp **** #include "joystick.h"
   5:Core/Src/robo_init.cpp **** 
   6:Core/Src/robo_init.cpp **** motor gMotor[4];
  28              		.loc 1 6 7 view -0
  29              		.cfi_startproc
  30              		@ args = 0, pretend = 0, frame = 0
  31              		@ frame_needed = 0, uses_anonymous_args = 0
  32              		@ link register save eliminated.
  33              		.loc 1 6 7 is_stmt 0 view .LVU1
  34 0000 034B     		ldr	r3, .L5
  35 0002 00E0     		b	.L3
  36              	.L4:
  37              		.loc 1 6 7 discriminator 3 view .LVU2
  38 0004 183B     		subs	r3, r3, #24
  39              	.LVL0:
  40              	.LBB23:
  41              	.LBI23:
  42              		.file 2 "Core/Inc/motor.h"
   1:Core/Inc/motor.h **** #ifndef _MOTOR_H_
   2:Core/Inc/motor.h **** #define _MOTOR_H_
   3:Core/Inc/motor.h **** 
   4:Core/Inc/motor.h **** #include "stm32f4xx_hal.h"
   5:Core/Inc/motor.h **** #include "tim.h"
   6:Core/Inc/motor.h **** #include <math.h>
   7:Core/Inc/motor.h **** #include "main.h"
   8:Core/Inc/motor.h **** #include "pid.h"
   9:Core/Inc/motor.h **** #include "encoder.h"
  10:Core/Inc/motor.h **** 
ARM GAS  C:\Users\one\AppData\Local\Temp\ccpgBytO.s 			page 2


  11:Core/Inc/motor.h **** enum Direction
  12:Core/Inc/motor.h **** {
  13:Core/Inc/motor.h **** 	CLOCKWISE,
  14:Core/Inc/motor.h **** 	ANTICLOCKWISE,
  15:Core/Inc/motor.h **** 	STOP
  16:Core/Inc/motor.h **** };
  17:Core/Inc/motor.h **** 
  18:Core/Inc/motor.h **** struct Motor_config
  19:Core/Inc/motor.h **** {
  20:Core/Inc/motor.h **** 	float max_omega;
  21:Core/Inc/motor.h **** 	float tolerance;
  22:Core/Inc/motor.h **** 
  23:Core/Inc/motor.h **** 	GPIO_TypeDef *in1_port;
  24:Core/Inc/motor.h **** 	uint16_t in1_pin;
  25:Core/Inc/motor.h **** 	GPIO_TypeDef *in2_port;
  26:Core/Inc/motor.h **** 	uint16_t in2_pin;
  27:Core/Inc/motor.h **** 	TIM_HandleTypeDef *htim; // PWM Generating Timer
  28:Core/Inc/motor.h **** 	uint32_t channel;			 // PWM Channel
  29:Core/Inc/motor.h **** };
  30:Core/Inc/motor.h **** 
  31:Core/Inc/motor.h **** class motor
  32:Core/Inc/motor.h **** {
  33:Core/Inc/motor.h **** public:
  34:Core/Inc/motor.h **** 	motor() { motor_ = 0; }
  35:Core/Inc/motor.h **** 	motor(Motor_config *motors) { motor_ = motors; }
  36:Core/Inc/motor.h **** 	motor(motor &&) = default;
  37:Core/Inc/motor.h **** 	motor(const motor &) = default;
  38:Core/Inc/motor.h **** 	motor &operator=(motor &&) = default;
  39:Core/Inc/motor.h **** 	motor &operator=(const motor &) = default;
  40:Core/Inc/motor.h **** 	~motor() {}
  43              		.loc 2 40 2 is_stmt 1 discriminator 3 view .LVU3
  44              	.LBB24:
  45              	.LBB25:
  46              	.LBI25:
  47              		.file 3 "Core/Inc/pid.h"
   1:Core/Inc/pid.h **** #ifndef _PID_H_
   2:Core/Inc/pid.h **** #define _PID_H_
   3:Core/Inc/pid.h **** #include "stdio.h"
   4:Core/Inc/pid.h **** //extern float SampleTime=10;
   5:Core/Inc/pid.h **** 
   6:Core/Inc/pid.h **** class PID
   7:Core/Inc/pid.h **** {
   8:Core/Inc/pid.h ****     public:
   9:Core/Inc/pid.h ****         PID(PID &&) = default;
  10:Core/Inc/pid.h ****         PID(const PID &) = default;
  11:Core/Inc/pid.h ****         PID &operator=(PID &&) = default;
  12:Core/Inc/pid.h ****         PID &operator=(const PID &) = default;
  13:Core/Inc/pid.h ****         PID(){setPID(0,0,0);}
  14:Core/Inc/pid.h ****         // PID()
  15:Core/Inc/pid.h ****         // {
  16:Core/Inc/pid.h ****         //     float  l_output_=0;
  17:Core/Inc/pid.h ****         //     float l_err_=0;
  18:Core/Inc/pid.h ****         //     float ll_err_=0;
  19:Core/Inc/pid.h ****         // }
  20:Core/Inc/pid.h ****         ~PID() { }
  48              		.loc 3 20 9 discriminator 3 view .LVU4
  49              	.L3:
ARM GAS  C:\Users\one\AppData\Local\Temp\ccpgBytO.s 			page 3


  50              		.loc 3 20 9 is_stmt 0 discriminator 3 view .LVU5
  51              	.LBE25:
  52              	.LBE24:
  53              	.LBE23:
  54              		.loc 1 6 7 discriminator 4 view .LVU6
  55 0006 034A     		ldr	r2, .L5+4
  56 0008 9342     		cmp	r3, r2
  57 000a FBD1     		bne	.L4
  58              		.loc 1 6 7 view .LVU7
  59 000c 7047     		bx	lr
  60              	.L6:
  61 000e 00BF     		.align	2
  62              	.L5:
  63 0010 60000000 		.word	.LANCHOR0+96
  64 0014 00000000 		.word	.LANCHOR0
  65              		.cfi_endproc
  66              	.LFE408:
  68              		.section	.text._ZL10motor_initv,"ax",%progbits
  69              		.align	1
  70              		.syntax unified
  71              		.thumb
  72              		.thumb_func
  73              		.fpu fpv4-sp-d16
  75              	_ZL10motor_initv:
  76              	.LFB406:
   7:Core/Src/robo_init.cpp **** static Motor_config motor_configurations[4];
   8:Core/Src/robo_init.cpp **** extern JoyStick joystick;
   9:Core/Src/robo_init.cpp **** //static  encoder_config encoder_configurations[4];
  10:Core/Src/robo_init.cpp **** 
  11:Core/Src/robo_init.cpp **** static void motor_init();
  12:Core/Src/robo_init.cpp **** //static void encoder_init();
  13:Core/Src/robo_init.cpp **** static void pid_init();
  14:Core/Src/robo_init.cpp **** 
  15:Core/Src/robo_init.cpp **** void robo_init()
  16:Core/Src/robo_init.cpp **** {
  17:Core/Src/robo_init.cpp **** 	// printf("\nLet's Begin\n");
  18:Core/Src/robo_init.cpp **** 	pid_init();
  19:Core/Src/robo_init.cpp **** 	encoder_init();
  20:Core/Src/robo_init.cpp **** 	motor_init();
  21:Core/Src/robo_init.cpp **** 
  22:Core/Src/robo_init.cpp **** 	joystick.init();
  23:Core/Src/robo_init.cpp **** }
  24:Core/Src/robo_init.cpp **** 
  25:Core/Src/robo_init.cpp **** static void pid_init()
  26:Core/Src/robo_init.cpp **** {
  27:Core/Src/robo_init.cpp **** 	// 2.6
  28:Core/Src/robo_init.cpp **** 	gMotor[0].setPID_constraints(1.5, 40, 0.00, 65, -65);  //2,38,
  29:Core/Src/robo_init.cpp **** 	gMotor[1].setPID_constraints(1.5, 40, 0.00, 65, -65); //1.74,45
  30:Core/Src/robo_init.cpp **** 	gMotor[2].setPID_constraints(1.5, 45, 0.00, 65, -65); //1.5,55
  31:Core/Src/robo_init.cpp **** 	gMotor[3].setPID_constraints(1.70, 48, 0.00, 65, -65); //1.7,48
  32:Core/Src/robo_init.cpp **** }
  33:Core/Src/robo_init.cpp **** 
  34:Core/Src/robo_init.cpp **** void motor_init()
  35:Core/Src/robo_init.cpp **** {
  77              		.loc 1 35 1 is_stmt 1 view -0
  78              		.cfi_startproc
  79              		@ args = 0, pretend = 0, frame = 0
ARM GAS  C:\Users\one\AppData\Local\Temp\ccpgBytO.s 			page 4


  80              		@ frame_needed = 0, uses_anonymous_args = 0
  81 0000 F8B5     		push	{r3, r4, r5, r6, r7, lr}
  82              	.LCFI0:
  83              		.cfi_def_cfa_offset 24
  84              		.cfi_offset 3, -24
  85              		.cfi_offset 4, -20
  86              		.cfi_offset 5, -16
  87              		.cfi_offset 6, -12
  88              		.cfi_offset 7, -8
  89              		.cfi_offset 14, -4
  36:Core/Src/robo_init.cpp **** 	motor_configurations[0].htim = &htim8;
  90              		.loc 1 36 2 view .LVU9
  91              		.loc 1 36 31 is_stmt 0 view .LVU10
  92 0002 314C     		ldr	r4, .L12
  93 0004 3148     		ldr	r0, .L12+4
  94 0006 A061     		str	r0, [r4, #24]
  37:Core/Src/robo_init.cpp **** 	motor_configurations[0].in1_port = GPIOD;
  95              		.loc 1 37 2 is_stmt 1 view .LVU11
  96              		.loc 1 37 35 is_stmt 0 view .LVU12
  97 0008 314F     		ldr	r7, .L12+8
  98 000a A760     		str	r7, [r4, #8]
  38:Core/Src/robo_init.cpp **** 	motor_configurations[0].in1_pin = GPIO_PIN_0;
  99              		.loc 1 38 2 is_stmt 1 view .LVU13
 100              		.loc 1 38 34 is_stmt 0 view .LVU14
 101 000c 0123     		movs	r3, #1
 102 000e A381     		strh	r3, [r4, #12]	@ movhi
  39:Core/Src/robo_init.cpp **** 	motor_configurations[0].in2_port = GPIOE;
 103              		.loc 1 39 2 is_stmt 1 view .LVU15
 104              		.loc 1 39 35 is_stmt 0 view .LVU16
 105 0010 304A     		ldr	r2, .L12+12
 106 0012 2261     		str	r2, [r4, #16]
  40:Core/Src/robo_init.cpp **** 	motor_configurations[0].in2_pin = GPIO_PIN_5;
 107              		.loc 1 40 2 is_stmt 1 view .LVU17
 108              		.loc 1 40 34 is_stmt 0 view .LVU18
 109 0014 2026     		movs	r6, #32
 110 0016 A682     		strh	r6, [r4, #20]	@ movhi
  41:Core/Src/robo_init.cpp **** 	motor_configurations[0].channel = TIM_CHANNEL_1;
 111              		.loc 1 41 2 is_stmt 1 view .LVU19
 112              		.loc 1 41 34 is_stmt 0 view .LVU20
 113 0018 0025     		movs	r5, #0
 114 001a E561     		str	r5, [r4, #28]
  42:Core/Src/robo_init.cpp **** 	motor_configurations[0].max_omega = 65;
 115              		.loc 1 42 2 is_stmt 1 view .LVU21
 116              		.loc 1 42 36 is_stmt 0 view .LVU22
 117 001c 2E49     		ldr	r1, .L12+16
 118 001e 2160     		str	r1, [r4]	@ float
  43:Core/Src/robo_init.cpp **** 	motor_configurations[0].tolerance = 1;
 119              		.loc 1 43 2 is_stmt 1 view .LVU23
 120              		.loc 1 43 36 is_stmt 0 view .LVU24
 121 0020 4FF07E53 		mov	r3, #1065353216
 122 0024 6360     		str	r3, [r4, #4]	@ float
  44:Core/Src/robo_init.cpp **** 
  45:Core/Src/robo_init.cpp **** 	motor_configurations[1].htim = &htim8;
 123              		.loc 1 45 2 is_stmt 1 view .LVU25
 124              		.loc 1 45 31 is_stmt 0 view .LVU26
 125 0026 A063     		str	r0, [r4, #56]
  46:Core/Src/robo_init.cpp **** 	motor_configurations[1].in1_port = GPIOA;
ARM GAS  C:\Users\one\AppData\Local\Temp\ccpgBytO.s 			page 5


 126              		.loc 1 46 2 is_stmt 1 view .LVU27
 127              		.loc 1 46 35 is_stmt 0 view .LVU28
 128 0028 DFF8C0C0 		ldr	ip, .L12+36
 129 002c C4F828C0 		str	ip, [r4, #40]
  47:Core/Src/robo_init.cpp **** 	motor_configurations[1].in1_pin = GPIO_PIN_10;
 130              		.loc 1 47 2 is_stmt 1 view .LVU29
 131              		.loc 1 47 34 is_stmt 0 view .LVU30
 132 0030 4FF4806C 		mov	ip, #1024
 133 0034 A4F82CC0 		strh	ip, [r4, #44]	@ movhi
  48:Core/Src/robo_init.cpp **** 	motor_configurations[1].in2_port = GPIOB;
 134              		.loc 1 48 2 is_stmt 1 view .LVU31
 135              		.loc 1 48 35 is_stmt 0 view .LVU32
 136 0038 0CF1804C 		add	ip, ip, #1073741824
 137 003c 0CF5003C 		add	ip, ip, #131072
 138 0040 C4F830C0 		str	ip, [r4, #48]
  49:Core/Src/robo_init.cpp **** 	motor_configurations[1].in2_pin = GPIO_PIN_5;
 139              		.loc 1 49 2 is_stmt 1 view .LVU33
 140              		.loc 1 49 34 is_stmt 0 view .LVU34
 141 0044 A686     		strh	r6, [r4, #52]	@ movhi
  50:Core/Src/robo_init.cpp **** 	motor_configurations[1].channel = TIM_CHANNEL_2;
 142              		.loc 1 50 2 is_stmt 1 view .LVU35
 143              		.loc 1 50 34 is_stmt 0 view .LVU36
 144 0046 0426     		movs	r6, #4
 145 0048 E663     		str	r6, [r4, #60]
  51:Core/Src/robo_init.cpp **** 	motor_configurations[1].max_omega = 65;
 146              		.loc 1 51 2 is_stmt 1 view .LVU37
 147              		.loc 1 51 36 is_stmt 0 view .LVU38
 148 004a 2162     		str	r1, [r4, #32]	@ float
  52:Core/Src/robo_init.cpp **** 	motor_configurations[1].tolerance = 1;
 149              		.loc 1 52 2 is_stmt 1 view .LVU39
 150              		.loc 1 52 36 is_stmt 0 view .LVU40
 151 004c 6362     		str	r3, [r4, #36]	@ float
  53:Core/Src/robo_init.cpp **** 
  54:Core/Src/robo_init.cpp **** 	motor_configurations[2].htim = &htim8;
 152              		.loc 1 54 2 is_stmt 1 view .LVU41
 153              		.loc 1 54 31 is_stmt 0 view .LVU42
 154 004e A065     		str	r0, [r4, #88]
  55:Core/Src/robo_init.cpp **** 	motor_configurations[2].in1_port = GPIOE;
 155              		.loc 1 55 2 is_stmt 1 view .LVU43
 156              		.loc 1 55 35 is_stmt 0 view .LVU44
 157 0050 A264     		str	r2, [r4, #72]
  56:Core/Src/robo_init.cpp **** 	motor_configurations[2].in1_pin = GPIO_PIN_3;
 158              		.loc 1 56 2 is_stmt 1 view .LVU45
 159              		.loc 1 56 34 is_stmt 0 view .LVU46
 160 0052 0821     		movs	r1, #8
 161 0054 A4F84C10 		strh	r1, [r4, #76]	@ movhi
  57:Core/Src/robo_init.cpp **** 	motor_configurations[2].in2_port = GPIOD;
 162              		.loc 1 57 2 is_stmt 1 view .LVU47
 163              		.loc 1 57 35 is_stmt 0 view .LVU48
 164 0058 2765     		str	r7, [r4, #80]
  58:Core/Src/robo_init.cpp **** 	motor_configurations[2].in2_pin = GPIO_PIN_2;
 165              		.loc 1 58 2 is_stmt 1 view .LVU49
 166              		.loc 1 58 34 is_stmt 0 view .LVU50
 167 005a A4F85460 		strh	r6, [r4, #84]	@ movhi
  59:Core/Src/robo_init.cpp **** 	motor_configurations[2].channel = TIM_CHANNEL_3;
 168              		.loc 1 59 2 is_stmt 1 view .LVU51
 169              		.loc 1 59 34 is_stmt 0 view .LVU52
ARM GAS  C:\Users\one\AppData\Local\Temp\ccpgBytO.s 			page 6


 170 005e E165     		str	r1, [r4, #92]
  60:Core/Src/robo_init.cpp **** 	motor_configurations[2].max_omega = 62;
 171              		.loc 1 60 2 is_stmt 1 view .LVU53
 172              		.loc 1 60 36 is_stmt 0 view .LVU54
 173 0060 1E49     		ldr	r1, .L12+20
 174 0062 2164     		str	r1, [r4, #64]	@ float
  61:Core/Src/robo_init.cpp **** 	motor_configurations[2].tolerance = 1;
 175              		.loc 1 61 2 is_stmt 1 view .LVU55
 176              		.loc 1 61 36 is_stmt 0 view .LVU56
 177 0064 6364     		str	r3, [r4, #68]	@ float
  62:Core/Src/robo_init.cpp **** 
  63:Core/Src/robo_init.cpp **** 	motor_configurations[3].htim = &htim8;
 178              		.loc 1 63 2 is_stmt 1 view .LVU57
 179              		.loc 1 63 31 is_stmt 0 view .LVU58
 180 0066 A067     		str	r0, [r4, #120]
  64:Core/Src/robo_init.cpp **** 	motor_configurations[3].in1_port = GPIOC;
 181              		.loc 1 64 2 is_stmt 1 view .LVU59
 182              		.loc 1 64 35 is_stmt 0 view .LVU60
 183 0068 1D49     		ldr	r1, .L12+24
 184 006a A166     		str	r1, [r4, #104]
  65:Core/Src/robo_init.cpp **** 	motor_configurations[3].in1_pin = GPIO_PIN_13;
 185              		.loc 1 65 2 is_stmt 1 view .LVU61
 186              		.loc 1 65 34 is_stmt 0 view .LVU62
 187 006c 4FF40051 		mov	r1, #8192
 188 0070 A4F86C10 		strh	r1, [r4, #108]	@ movhi
  66:Core/Src/robo_init.cpp **** 	motor_configurations[3].in2_port = GPIOE;
 189              		.loc 1 66 2 is_stmt 1 view .LVU63
 190              		.loc 1 66 35 is_stmt 0 view .LVU64
 191 0074 2267     		str	r2, [r4, #112]
  67:Core/Src/robo_init.cpp **** 	motor_configurations[3].in2_pin = GPIO_PIN_1;
 192              		.loc 1 67 2 is_stmt 1 view .LVU65
 193              		.loc 1 67 34 is_stmt 0 view .LVU66
 194 0076 0222     		movs	r2, #2
 195 0078 A4F87420 		strh	r2, [r4, #116]	@ movhi
  68:Core/Src/robo_init.cpp **** 	motor_configurations[3].channel = TIM_CHANNEL_4;
 196              		.loc 1 68 2 is_stmt 1 view .LVU67
 197              		.loc 1 68 34 is_stmt 0 view .LVU68
 198 007c 0C22     		movs	r2, #12
 199 007e E267     		str	r2, [r4, #124]
  69:Core/Src/robo_init.cpp **** 	motor_configurations[3].max_omega = 61;
 200              		.loc 1 69 2 is_stmt 1 view .LVU69
 201              		.loc 1 69 36 is_stmt 0 view .LVU70
 202 0080 184A     		ldr	r2, .L12+28
 203 0082 2266     		str	r2, [r4, #96]	@ float
  70:Core/Src/robo_init.cpp **** 	motor_configurations[3].tolerance = 1;
 204              		.loc 1 70 2 is_stmt 1 view .LVU71
 205              		.loc 1 70 36 is_stmt 0 view .LVU72
 206 0084 6366     		str	r3, [r4, #100]	@ float
  71:Core/Src/robo_init.cpp **** 
  72:Core/Src/robo_init.cpp **** 	HAL_TIM_Base_Start(&htim8);
 207              		.loc 1 72 2 is_stmt 1 view .LVU73
 208              		.loc 1 72 20 is_stmt 0 view .LVU74
 209 0086 FFF7FEFF 		bl	HAL_TIM_Base_Start
 210              	.LVL1:
  73:Core/Src/robo_init.cpp **** 	HAL_TIM_PWM_Start(motor_configurations[0].htim, motor_configurations[0].channel);
 211              		.loc 1 73 2 is_stmt 1 view .LVU75
 212              		.loc 1 73 19 is_stmt 0 view .LVU76
ARM GAS  C:\Users\one\AppData\Local\Temp\ccpgBytO.s 			page 7


 213 008a E169     		ldr	r1, [r4, #28]
 214 008c A069     		ldr	r0, [r4, #24]
 215 008e FFF7FEFF 		bl	HAL_TIM_PWM_Start
 216              	.LVL2:
  74:Core/Src/robo_init.cpp **** 	HAL_TIM_PWM_Start(motor_configurations[1].htim, motor_configurations[1].channel);
 217              		.loc 1 74 2 is_stmt 1 view .LVU77
 218              		.loc 1 74 19 is_stmt 0 view .LVU78
 219 0092 E16B     		ldr	r1, [r4, #60]
 220 0094 A06B     		ldr	r0, [r4, #56]
 221 0096 FFF7FEFF 		bl	HAL_TIM_PWM_Start
 222              	.LVL3:
  75:Core/Src/robo_init.cpp **** 	HAL_TIM_PWM_Start(motor_configurations[2].htim, motor_configurations[2].channel);
 223              		.loc 1 75 2 is_stmt 1 view .LVU79
 224              		.loc 1 75 19 is_stmt 0 view .LVU80
 225 009a E16D     		ldr	r1, [r4, #92]
 226 009c A06D     		ldr	r0, [r4, #88]
 227 009e FFF7FEFF 		bl	HAL_TIM_PWM_Start
 228              	.LVL4:
  76:Core/Src/robo_init.cpp **** 	HAL_TIM_PWM_Start(motor_configurations[3].htim, motor_configurations[3].channel);
 229              		.loc 1 76 2 is_stmt 1 view .LVU81
 230              		.loc 1 76 19 is_stmt 0 view .LVU82
 231 00a2 E16F     		ldr	r1, [r4, #124]
 232 00a4 A06F     		ldr	r0, [r4, #120]
 233 00a6 FFF7FEFF 		bl	HAL_TIM_PWM_Start
 234              	.LVL5:
  77:Core/Src/robo_init.cpp **** 	for (int i = 0; i < 4; i++)
 235              		.loc 1 77 2 is_stmt 1 view .LVU83
 236              	.LBB26:
 237              		.loc 1 77 11 is_stmt 0 view .LVU84
 238 00aa 2B46     		mov	r3, r5
 239 00ac 08E0     		b	.L9
 240              	.LVL6:
 241              	.L11:
  78:Core/Src/robo_init.cpp **** 	{
  79:Core/Src/robo_init.cpp **** 		gMotor[i].set_config(&motor_configurations[i]);
 242              		.loc 1 79 3 is_stmt 1 discriminator 2 view .LVU85
 243              		.loc 1 79 23 is_stmt 0 discriminator 2 view .LVU86
 244 00ae 064A     		ldr	r2, .L12
 245 00b0 02EB4312 		add	r2, r2, r3, lsl #5
 246              	.LVL7:
 247              	.LBB27:
 248              	.LBI27:
  41:Core/Inc/motor.h **** 	void set_config(Motor_config *motors) { motor_ = motors; }
 249              		.loc 2 41 7 is_stmt 1 discriminator 2 view .LVU87
 250              	.LBB28:
 251              		.loc 2 41 42 discriminator 2 view .LVU88
 252              		.loc 2 41 49 is_stmt 0 discriminator 2 view .LVU89
 253 00b4 03EB4300 		add	r0, r3, r3, lsl #1
 254 00b8 C100     		lsls	r1, r0, #3
 255 00ba 0B48     		ldr	r0, .L12+32
 256 00bc 4250     		str	r2, [r0, r1]
 257              	.LVL8:
 258              		.loc 2 41 49 discriminator 2 view .LVU90
 259              	.LBE28:
 260              	.LBE27:
  77:Core/Src/robo_init.cpp **** 	for (int i = 0; i < 4; i++)
 261              		.loc 1 77 2 is_stmt 1 discriminator 2 view .LVU91
ARM GAS  C:\Users\one\AppData\Local\Temp\ccpgBytO.s 			page 8


 262 00be 0133     		adds	r3, r3, #1
 263              	.LVL9:
 264              	.L9:
  77:Core/Src/robo_init.cpp **** 	for (int i = 0; i < 4; i++)
 265              		.loc 1 77 20 discriminator 3 view .LVU92
 266 00c0 032B     		cmp	r3, #3
 267 00c2 F4DD     		ble	.L11
 268              	.LBE26:
  80:Core/Src/robo_init.cpp **** 	}
  81:Core/Src/robo_init.cpp **** }
 269              		.loc 1 81 1 is_stmt 0 view .LVU93
 270 00c4 F8BD     		pop	{r3, r4, r5, r6, r7, pc}
 271              	.LVL10:
 272              	.L13:
 273              		.loc 1 81 1 view .LVU94
 274 00c6 00BF     		.align	2
 275              	.L12:
 276 00c8 00000000 		.word	.LANCHOR1
 277 00cc 00000000 		.word	htim8
 278 00d0 000C0240 		.word	1073875968
 279 00d4 00100240 		.word	1073876992
 280 00d8 00008242 		.word	1115815936
 281 00dc 00007842 		.word	1115160576
 282 00e0 00080240 		.word	1073874944
 283 00e4 00007442 		.word	1114898432
 284 00e8 00000000 		.word	.LANCHOR0
 285 00ec 00000240 		.word	1073872896
 286              		.cfi_endproc
 287              	.LFE406:
 289              		.section	.text._Z41__static_initialization_and_destruction_0ii,"ax",%progbits
 290              		.align	1
 291              		.syntax unified
 292              		.thumb
 293              		.thumb_func
 294              		.fpu fpv4-sp-d16
 296              	_Z41__static_initialization_and_destruction_0ii:
 297              	.LVL11:
 298              	.LFB407:
 299              		.loc 1 81 1 is_stmt 1 view -0
 300              		.cfi_startproc
 301              		@ args = 0, pretend = 0, frame = 0
 302              		@ frame_needed = 0, uses_anonymous_args = 0
 303              		.loc 1 81 1 is_stmt 0 view .LVU96
 304 0000 0128     		cmp	r0, #1
 305 0002 00D0     		beq	.L22
 306 0004 7047     		bx	lr
 307              	.L22:
 308              		.loc 1 81 1 discriminator 1 view .LVU97
 309 0006 38B5     		push	{r3, r4, r5, lr}
 310              	.LCFI1:
 311              		.cfi_def_cfa_offset 16
 312              		.cfi_offset 3, -16
 313              		.cfi_offset 4, -12
 314              		.cfi_offset 5, -8
 315              		.cfi_offset 14, -4
 316              		.loc 1 81 1 discriminator 1 view .LVU98
 317 0008 4FF6FF73 		movw	r3, #65535
ARM GAS  C:\Users\one\AppData\Local\Temp\ccpgBytO.s 			page 9


 318 000c 9942     		cmp	r1, r3
 319 000e 00D0     		beq	.L23
 320              	.LVL12:
 321              	.L14:
 322              		.loc 1 81 1 view .LVU99
 323 0010 38BD     		pop	{r3, r4, r5, pc}
 324              	.LVL13:
 325              	.L23:
   6:Core/Src/robo_init.cpp **** static Motor_config motor_configurations[4];
 326              		.loc 1 6 15 view .LVU100
 327 0012 0324     		movs	r4, #3
 328 0014 0B4D     		ldr	r5, .L25
 329 0016 0CE0     		b	.L17
 330              	.LVL14:
 331              	.L24:
 332              	.LBB29:
 333              	.LBI29:
  34:Core/Inc/motor.h **** 	motor(Motor_config *motors) { motor_ = motors; }
 334              		.loc 2 34 2 is_stmt 1 view .LVU101
 335              	.LBB30:
 336              	.LBB31:
 337              	.LBI31:
  13:Core/Inc/pid.h ****         // PID()
 338              		.loc 3 13 9 view .LVU102
 339              	.LBB32:
  13:Core/Inc/pid.h ****         // PID()
 340              		.loc 3 13 15 view .LVU103
  13:Core/Inc/pid.h ****         // PID()
 341              		.loc 3 13 21 is_stmt 0 view .LVU104
 342 0018 9FED0B0A 		vldr.32	s0, .L25+4
 343 001c B0EE401A 		vmov.f32	s2, s0
 344 0020 F0EE400A 		vmov.f32	s1, s0
 345 0024 281D     		adds	r0, r5, #4
 346              	.LVL15:
  13:Core/Inc/pid.h ****         // PID()
 347              		.loc 3 13 21 view .LVU105
 348 0026 FFF7FEFF 		bl	_ZN3PID6setPIDEfff
 349              	.LVL16:
  13:Core/Inc/pid.h ****         // PID()
 350              		.loc 3 13 21 view .LVU106
 351              	.LBE32:
 352              	.LBE31:
  34:Core/Inc/motor.h **** 	motor(Motor_config *motors) { motor_ = motors; }
 353              		.loc 2 34 12 is_stmt 1 view .LVU107
  34:Core/Inc/motor.h **** 	motor(Motor_config *motors) { motor_ = motors; }
 354              		.loc 2 34 19 is_stmt 0 view .LVU108
 355 002a 0023     		movs	r3, #0
 356 002c 45F8183B 		str	r3, [r5], #24
 357              	.LVL17:
  34:Core/Inc/motor.h **** 	motor(Motor_config *motors) { motor_ = motors; }
 358              		.loc 2 34 19 view .LVU109
 359              	.LBE30:
 360              	.LBE29:
   6:Core/Src/robo_init.cpp **** static Motor_config motor_configurations[4];
 361              		.loc 1 6 15 is_stmt 1 view .LVU110
 362 0030 013C     		subs	r4, r4, #1
 363              	.L17:
ARM GAS  C:\Users\one\AppData\Local\Temp\ccpgBytO.s 			page 10


   6:Core/Src/robo_init.cpp **** static Motor_config motor_configurations[4];
 364              		.loc 1 6 15 discriminator 4 view .LVU111
 365 0032 002C     		cmp	r4, #0
 366 0034 F0DA     		bge	.L24
   6:Core/Src/robo_init.cpp **** static Motor_config motor_configurations[4];
 367              		.loc 1 6 7 is_stmt 0 discriminator 2 view .LVU112
 368 0036 054A     		ldr	r2, .L25+8
 369 0038 0549     		ldr	r1, .L25+12
 370 003a 0020     		movs	r0, #0
 371 003c FFF7FEFF 		bl	__aeabi_atexit
 372              	.LVL18:
 373              		.loc 1 81 1 discriminator 2 view .LVU113
 374 0040 E6E7     		b	.L14
 375              	.L26:
 376 0042 00BF     		.align	2
 377              	.L25:
 378 0044 00000000 		.word	.LANCHOR0
 379 0048 00000000 		.word	0
 380 004c 00000000 		.word	__dso_handle
 381 0050 00000000 		.word	__tcf_0
 382              		.cfi_endproc
 383              	.LFE407:
 385              		.section	.text._ZL8pid_initv,"ax",%progbits
 386              		.align	1
 387              		.syntax unified
 388              		.thumb
 389              		.thumb_func
 390              		.fpu fpv4-sp-d16
 392              	_ZL8pid_initv:
 393              	.LFB405:
  26:Core/Src/robo_init.cpp **** 	// 2.6
 394              		.loc 1 26 1 is_stmt 1 view -0
 395              		.cfi_startproc
 396              		@ args = 0, pretend = 0, frame = 0
 397              		@ frame_needed = 0, uses_anonymous_args = 0
 398 0000 38B5     		push	{r3, r4, r5, lr}
 399              	.LCFI2:
 400              		.cfi_def_cfa_offset 16
 401              		.cfi_offset 3, -16
 402              		.cfi_offset 4, -12
 403              		.cfi_offset 5, -8
 404              		.cfi_offset 14, -4
 405 0002 2DED048B 		vpush.64	{d8, d9}
 406              	.LCFI3:
 407              		.cfi_def_cfa_offset 32
 408              		.cfi_offset 80, -32
 409              		.cfi_offset 81, -28
 410              		.cfi_offset 82, -24
 411              		.cfi_offset 83, -20
  28:Core/Src/robo_init.cpp **** 	gMotor[1].setPID_constraints(1.5, 40, 0.00, 65, -65); //1.74,45
 412              		.loc 1 28 2 view .LVU115
 413              	.LVL19:
 414              	.LBB41:
 415              	.LBI41:
  42:Core/Inc/motor.h **** 	float get_max_omega() { return motor_->max_omega; }
  43:Core/Inc/motor.h **** 	void set_direction(enum Direction dir);
  44:Core/Inc/motor.h **** 	void motor_input(float setpoint, float iOmega);
ARM GAS  C:\Users\one\AppData\Local\Temp\ccpgBytO.s 			page 11


  45:Core/Inc/motor.h **** 	void set_omega(float omega);
  46:Core/Inc/motor.h **** 	//void set(float omega);
  47:Core/Inc/motor.h **** 
  48:Core/Inc/motor.h **** 	void setPID_constraints(float kp, float ki, float kd, float upper_limit, float lower_limit)
 416              		.loc 2 48 7 view .LVU116
 417              	.LBB42:
  49:Core/Inc/motor.h **** 	{
  50:Core/Inc/motor.h **** 		Spid.setKp(kp);
 418              		.loc 2 50 3 view .LVU117
 419              		.loc 2 50 13 is_stmt 0 view .LVU118
 420 0006 354C     		ldr	r4, .L29
 421 0008 251D     		adds	r5, r4, #4
 422 000a B7EE080A 		vmov.f32	s0, #1.5e+0
 423 000e 2846     		mov	r0, r5
 424 0010 FFF7FEFF 		bl	_ZN3PID5setKpEf
 425              	.LVL20:
  51:Core/Inc/motor.h **** 		Spid.setKi(ki);
 426              		.loc 2 51 3 is_stmt 1 view .LVU119
 427              		.loc 2 51 13 is_stmt 0 view .LVU120
 428 0014 DFED329A 		vldr.32	s19, .L29+4
 429 0018 B0EE690A 		vmov.f32	s0, s19
 430 001c 2846     		mov	r0, r5
 431 001e FFF7FEFF 		bl	_ZN3PID5setKiEf
 432              	.LVL21:
  52:Core/Inc/motor.h **** 		Spid.setKd(kd);
 433              		.loc 2 52 3 is_stmt 1 view .LVU121
 434              		.loc 2 52 13 is_stmt 0 view .LVU122
 435 0022 9FED309A 		vldr.32	s18, .L29+8
 436 0026 B0EE490A 		vmov.f32	s0, s18
 437 002a 2846     		mov	r0, r5
 438 002c FFF7FEFF 		bl	_ZN3PID5setKdEf
 439              	.LVL22:
  53:Core/Inc/motor.h **** 		Spid.setlimits(upper_limit, lower_limit);
 440              		.loc 2 53 3 is_stmt 1 view .LVU123
 441              		.loc 2 53 17 is_stmt 0 view .LVU124
 442 0030 DFED2D8A 		vldr.32	s17, .L29+12
 443 0034 9FED2D8A 		vldr.32	s16, .L29+16
 444 0038 F0EE680A 		vmov.f32	s1, s17
 445 003c B0EE480A 		vmov.f32	s0, s16
 446 0040 2846     		mov	r0, r5
 447 0042 FFF7FEFF 		bl	_ZN3PID9setlimitsEff
 448              	.LVL23:
 449              		.loc 2 53 17 view .LVU125
 450              	.LBE42:
 451              	.LBE41:
  29:Core/Src/robo_init.cpp **** 	gMotor[2].setPID_constraints(1.5, 45, 0.00, 65, -65); //1.5,55
 452              		.loc 1 29 2 is_stmt 1 view .LVU126
 453              	.LBB43:
 454              	.LBI43:
  48:Core/Inc/motor.h **** 	{
 455              		.loc 2 48 7 view .LVU127
 456              	.LBB44:
  50:Core/Inc/motor.h **** 		Spid.setKi(ki);
 457              		.loc 2 50 3 view .LVU128
  50:Core/Inc/motor.h **** 		Spid.setKi(ki);
 458              		.loc 2 50 13 is_stmt 0 view .LVU129
 459 0046 04F11C05 		add	r5, r4, #28
ARM GAS  C:\Users\one\AppData\Local\Temp\ccpgBytO.s 			page 12


 460 004a B7EE080A 		vmov.f32	s0, #1.5e+0
 461 004e 2846     		mov	r0, r5
 462 0050 FFF7FEFF 		bl	_ZN3PID5setKpEf
 463              	.LVL24:
  51:Core/Inc/motor.h **** 		Spid.setKd(kd);
 464              		.loc 2 51 3 is_stmt 1 view .LVU130
  51:Core/Inc/motor.h **** 		Spid.setKd(kd);
 465              		.loc 2 51 13 is_stmt 0 view .LVU131
 466 0054 B0EE690A 		vmov.f32	s0, s19
 467 0058 2846     		mov	r0, r5
 468 005a FFF7FEFF 		bl	_ZN3PID5setKiEf
 469              	.LVL25:
  52:Core/Inc/motor.h **** 		Spid.setlimits(upper_limit, lower_limit);
 470              		.loc 2 52 3 is_stmt 1 view .LVU132
  52:Core/Inc/motor.h **** 		Spid.setlimits(upper_limit, lower_limit);
 471              		.loc 2 52 13 is_stmt 0 view .LVU133
 472 005e B0EE490A 		vmov.f32	s0, s18
 473 0062 2846     		mov	r0, r5
 474 0064 FFF7FEFF 		bl	_ZN3PID5setKdEf
 475              	.LVL26:
 476              		.loc 2 53 3 is_stmt 1 view .LVU134
 477              		.loc 2 53 17 is_stmt 0 view .LVU135
 478 0068 F0EE680A 		vmov.f32	s1, s17
 479 006c B0EE480A 		vmov.f32	s0, s16
 480 0070 2846     		mov	r0, r5
 481 0072 FFF7FEFF 		bl	_ZN3PID9setlimitsEff
 482              	.LVL27:
 483              		.loc 2 53 17 view .LVU136
 484              	.LBE44:
 485              	.LBE43:
  30:Core/Src/robo_init.cpp **** 	gMotor[3].setPID_constraints(1.70, 48, 0.00, 65, -65); //1.7,48
 486              		.loc 1 30 2 is_stmt 1 view .LVU137
 487              	.LBB45:
 488              	.LBI45:
  48:Core/Inc/motor.h **** 	{
 489              		.loc 2 48 7 view .LVU138
 490              	.LBB46:
  50:Core/Inc/motor.h **** 		Spid.setKi(ki);
 491              		.loc 2 50 3 view .LVU139
  50:Core/Inc/motor.h **** 		Spid.setKi(ki);
 492              		.loc 2 50 13 is_stmt 0 view .LVU140
 493 0076 04F13405 		add	r5, r4, #52
 494 007a B7EE080A 		vmov.f32	s0, #1.5e+0
 495 007e 2846     		mov	r0, r5
 496 0080 FFF7FEFF 		bl	_ZN3PID5setKpEf
 497              	.LVL28:
  51:Core/Inc/motor.h **** 		Spid.setKd(kd);
 498              		.loc 2 51 3 is_stmt 1 view .LVU141
  51:Core/Inc/motor.h **** 		Spid.setKd(kd);
 499              		.loc 2 51 13 is_stmt 0 view .LVU142
 500 0084 9FED1A0A 		vldr.32	s0, .L29+20
 501 0088 2846     		mov	r0, r5
 502 008a FFF7FEFF 		bl	_ZN3PID5setKiEf
 503              	.LVL29:
  52:Core/Inc/motor.h **** 		Spid.setlimits(upper_limit, lower_limit);
 504              		.loc 2 52 3 is_stmt 1 view .LVU143
  52:Core/Inc/motor.h **** 		Spid.setlimits(upper_limit, lower_limit);
ARM GAS  C:\Users\one\AppData\Local\Temp\ccpgBytO.s 			page 13


 505              		.loc 2 52 13 is_stmt 0 view .LVU144
 506 008e B0EE490A 		vmov.f32	s0, s18
 507 0092 2846     		mov	r0, r5
 508 0094 FFF7FEFF 		bl	_ZN3PID5setKdEf
 509              	.LVL30:
 510              		.loc 2 53 3 is_stmt 1 view .LVU145
 511              		.loc 2 53 17 is_stmt 0 view .LVU146
 512 0098 F0EE680A 		vmov.f32	s1, s17
 513 009c B0EE480A 		vmov.f32	s0, s16
 514 00a0 2846     		mov	r0, r5
 515 00a2 FFF7FEFF 		bl	_ZN3PID9setlimitsEff
 516              	.LVL31:
 517              		.loc 2 53 17 view .LVU147
 518              	.LBE46:
 519              	.LBE45:
  31:Core/Src/robo_init.cpp **** }
 520              		.loc 1 31 2 is_stmt 1 view .LVU148
 521              	.LBB47:
 522              	.LBI47:
  48:Core/Inc/motor.h **** 	{
 523              		.loc 2 48 7 view .LVU149
 524              	.LBB48:
  50:Core/Inc/motor.h **** 		Spid.setKi(ki);
 525              		.loc 2 50 3 view .LVU150
  50:Core/Inc/motor.h **** 		Spid.setKi(ki);
 526              		.loc 2 50 13 is_stmt 0 view .LVU151
 527 00a6 4C34     		adds	r4, r4, #76
 528 00a8 9FED120A 		vldr.32	s0, .L29+24
 529 00ac 2046     		mov	r0, r4
 530 00ae FFF7FEFF 		bl	_ZN3PID5setKpEf
 531              	.LVL32:
  51:Core/Inc/motor.h **** 		Spid.setKd(kd);
 532              		.loc 2 51 3 is_stmt 1 view .LVU152
  51:Core/Inc/motor.h **** 		Spid.setKd(kd);
 533              		.loc 2 51 13 is_stmt 0 view .LVU153
 534 00b2 9FED110A 		vldr.32	s0, .L29+28
 535 00b6 2046     		mov	r0, r4
 536 00b8 FFF7FEFF 		bl	_ZN3PID5setKiEf
 537              	.LVL33:
  52:Core/Inc/motor.h **** 		Spid.setlimits(upper_limit, lower_limit);
 538              		.loc 2 52 3 is_stmt 1 view .LVU154
  52:Core/Inc/motor.h **** 		Spid.setlimits(upper_limit, lower_limit);
 539              		.loc 2 52 13 is_stmt 0 view .LVU155
 540 00bc B0EE490A 		vmov.f32	s0, s18
 541 00c0 2046     		mov	r0, r4
 542 00c2 FFF7FEFF 		bl	_ZN3PID5setKdEf
 543              	.LVL34:
 544              		.loc 2 53 3 is_stmt 1 view .LVU156
 545              		.loc 2 53 17 is_stmt 0 view .LVU157
 546 00c6 F0EE680A 		vmov.f32	s1, s17
 547 00ca B0EE480A 		vmov.f32	s0, s16
 548 00ce 2046     		mov	r0, r4
 549 00d0 FFF7FEFF 		bl	_ZN3PID9setlimitsEff
 550              	.LVL35:
 551              		.loc 2 53 17 view .LVU158
 552              	.LBE48:
 553              	.LBE47:
ARM GAS  C:\Users\one\AppData\Local\Temp\ccpgBytO.s 			page 14


  32:Core/Src/robo_init.cpp **** 
 554              		.loc 1 32 1 view .LVU159
 555 00d4 BDEC048B 		vldm	sp!, {d8-d9}
 556              	.LCFI4:
 557              		.cfi_restore 82
 558              		.cfi_restore 83
 559              		.cfi_restore 80
 560              		.cfi_restore 81
 561              		.cfi_def_cfa_offset 16
 562 00d8 38BD     		pop	{r3, r4, r5, pc}
 563              	.L30:
 564 00da 00BF     		.align	2
 565              	.L29:
 566 00dc 00000000 		.word	.LANCHOR0
 567 00e0 00002042 		.word	1109393408
 568 00e4 00000000 		.word	0
 569 00e8 000082C2 		.word	-1031667712
 570 00ec 00008242 		.word	1115815936
 571 00f0 00003442 		.word	1110704128
 572 00f4 9A99D93F 		.word	1071225242
 573 00f8 00004042 		.word	1111490560
 574              		.cfi_endproc
 575              	.LFE405:
 577              		.section	.text._Z9robo_initv,"ax",%progbits
 578              		.align	1
 579              		.global	_Z9robo_initv
 580              		.syntax unified
 581              		.thumb
 582              		.thumb_func
 583              		.fpu fpv4-sp-d16
 585              	_Z9robo_initv:
 586              	.LFB404:
  16:Core/Src/robo_init.cpp **** 	// printf("\nLet's Begin\n");
 587              		.loc 1 16 1 is_stmt 1 view -0
 588              		.cfi_startproc
 589              		@ args = 0, pretend = 0, frame = 0
 590              		@ frame_needed = 0, uses_anonymous_args = 0
 591 0000 08B5     		push	{r3, lr}
 592              	.LCFI5:
 593              		.cfi_def_cfa_offset 8
 594              		.cfi_offset 3, -8
 595              		.cfi_offset 14, -4
  18:Core/Src/robo_init.cpp **** 	encoder_init();
 596              		.loc 1 18 2 view .LVU161
  18:Core/Src/robo_init.cpp **** 	encoder_init();
 597              		.loc 1 18 10 is_stmt 0 view .LVU162
 598 0002 FFF7FEFF 		bl	_ZL8pid_initv
 599              	.LVL36:
  19:Core/Src/robo_init.cpp **** 	motor_init();
 600              		.loc 1 19 2 is_stmt 1 view .LVU163
  19:Core/Src/robo_init.cpp **** 	motor_init();
 601              		.loc 1 19 14 is_stmt 0 view .LVU164
 602 0006 FFF7FEFF 		bl	_Z12encoder_initv
 603              	.LVL37:
  20:Core/Src/robo_init.cpp **** 
 604              		.loc 1 20 2 is_stmt 1 view .LVU165
  20:Core/Src/robo_init.cpp **** 
ARM GAS  C:\Users\one\AppData\Local\Temp\ccpgBytO.s 			page 15


 605              		.loc 1 20 12 is_stmt 0 view .LVU166
 606 000a FFF7FEFF 		bl	_ZL10motor_initv
 607              	.LVL38:
  22:Core/Src/robo_init.cpp **** }
 608              		.loc 1 22 2 is_stmt 1 view .LVU167
  22:Core/Src/robo_init.cpp **** }
 609              		.loc 1 22 15 is_stmt 0 view .LVU168
 610 000e 0248     		ldr	r0, .L33
 611 0010 FFF7FEFF 		bl	_ZN8JoyStick4initEv
 612              	.LVL39:
  23:Core/Src/robo_init.cpp **** 
 613              		.loc 1 23 1 view .LVU169
 614 0014 08BD     		pop	{r3, pc}
 615              	.L34:
 616 0016 00BF     		.align	2
 617              	.L33:
 618 0018 00000000 		.word	joystick
 619              		.cfi_endproc
 620              	.LFE404:
 622              		.section	.text._GLOBAL__sub_I_gMotor,"ax",%progbits
 623              		.align	1
 624              		.syntax unified
 625              		.thumb
 626              		.thumb_func
 627              		.fpu fpv4-sp-d16
 629              	_GLOBAL__sub_I_gMotor:
 630              	.LFB409:
 631              		.loc 1 81 1 is_stmt 1 view -0
 632              		.cfi_startproc
 633              		@ args = 0, pretend = 0, frame = 0
 634              		@ frame_needed = 0, uses_anonymous_args = 0
 635 0000 08B5     		push	{r3, lr}
 636              	.LCFI6:
 637              		.cfi_def_cfa_offset 8
 638              		.cfi_offset 3, -8
 639              		.cfi_offset 14, -4
 640              		.loc 1 81 1 is_stmt 0 view .LVU171
 641 0002 4FF6FF71 		movw	r1, #65535
 642 0006 0120     		movs	r0, #1
 643 0008 FFF7FEFF 		bl	_Z41__static_initialization_and_destruction_0ii
 644              	.LVL40:
 645 000c 08BD     		pop	{r3, pc}
 646              		.cfi_endproc
 647              	.LFE409:
 649              		.section	.init_array,"aw",%init_array
 650              		.align	2
 651 0000 00000000 		.word	_GLOBAL__sub_I_gMotor(target1)
 652              		.global	gMotor
 653              		.section	.bss._ZL20motor_configurations,"aw",%nobits
 654              		.align	2
 655              		.set	.LANCHOR1,. + 0
 658              	_ZL20motor_configurations:
 659 0000 00000000 		.space	128
 659      00000000 
 659      00000000 
 659      00000000 
 659      00000000 
ARM GAS  C:\Users\one\AppData\Local\Temp\ccpgBytO.s 			page 16


 660              		.section	.bss.gMotor,"aw",%nobits
 661              		.align	2
 662              		.set	.LANCHOR0,. + 0
 665              	gMotor:
 666 0000 00000000 		.space	96
 666      00000000 
 666      00000000 
 666      00000000 
 666      00000000 
 667              		.text
 668              	.Letext0:
 669              		.file 4 "c:\\vsarm\\armcc\\arm-none-eabi\\include\\machine\\_default_types.h"
 670              		.file 5 "c:\\vsarm\\armcc\\arm-none-eabi\\include\\sys\\_stdint.h"
 671              		.file 6 "Drivers/CMSIS/Include/core_cm4.h"
 672              		.file 7 "Drivers/CMSIS/Device/ST/STM32F4xx/Include/system_stm32f4xx.h"
 673              		.file 8 "Drivers/CMSIS/Device/ST/STM32F4xx/Include/stm32f407xx.h"
 674              		.file 9 "Drivers/CMSIS/Device/ST/STM32F4xx/Include/stm32f4xx.h"
 675              		.file 10 "Drivers/STM32F4xx_HAL_Driver/Inc/stm32f4xx_hal_def.h"
 676              		.file 11 "Drivers/STM32F4xx_HAL_Driver/Inc/stm32f4xx_hal_dma.h"
 677              		.file 12 "Drivers/STM32F4xx_HAL_Driver/Inc/stm32f4xx_hal_tim.h"
 678              		.file 13 "Drivers/STM32F4xx_HAL_Driver/Inc/stm32f4xx_hal_uart.h"
 679              		.file 14 "Drivers/STM32F4xx_HAL_Driver/Inc/stm32f4xx_hal.h"
 680              		.file 15 "Core/Inc/tim.h"
 681              		.file 16 "Core/Inc/usart.h"
 682              		.file 17 "c:\\vsarm\\armcc\\lib\\gcc\\arm-none-eabi\\9.3.1\\include\\stddef.h"
 683              		.file 18 "c:\\vsarm\\armcc\\arm-none-eabi\\include\\sys\\_types.h"
 684              		.file 19 "c:\\vsarm\\armcc\\arm-none-eabi\\include\\sys\\reent.h"
 685              		.file 20 "c:\\vsarm\\armcc\\arm-none-eabi\\include\\sys\\lock.h"
 686              		.file 21 "c:\\vsarm\\armcc\\arm-none-eabi\\include\\c++\\9.3.1\\bits\\cpp_type_traits.h"
 687              		.file 22 "c:\\vsarm\\armcc\\arm-none-eabi\\include\\c++\\9.3.1\\cmath"
 688              		.file 23 "c:\\vsarm\\armcc\\arm-none-eabi\\include\\c++\\9.3.1\\bits\\std_abs.h"
 689              		.file 24 "c:\\vsarm\\armcc\\arm-none-eabi\\include\\c++\\9.3.1\\arm-none-eabi\\thumb\\v7e-m+fp\\ha
 690              		.file 25 "c:\\vsarm\\armcc\\arm-none-eabi\\include\\math.h"
 691              		.file 26 "c:\\vsarm\\armcc\\arm-none-eabi\\include\\stdlib.h"
 692              		.file 27 "c:\\vsarm\\armcc\\arm-none-eabi\\include\\c++\\9.3.1\\math.h"
 693              		.file 28 "Core/Inc/joystick.h"
 694              		.file 29 "Core/Inc/encoder.h"
 695              		.file 30 "<built-in>"
ARM GAS  C:\Users\one\AppData\Local\Temp\ccpgBytO.s 			page 17

